; Function Attrs: null_pointer_is_valid sspstrong uwtable
define internal fastcc ptr @dissect_igmp_common(ptr noundef %0, ptr noundef readonly captures(none) %1, ptr noundef %2, ptr noundef writeonly captures(none) initializes((0, 4)) %3, ptr noundef writeonly captures(none) initializes((0, 1)) %4, i32 noundef range(i32 0, 4) %5) unnamed_addr #0 {
  %7 = getelementptr inbounds nuw i8, ptr %1, i64 8
  %8 = load ptr, ptr %7, align 8
  tail call void (ptr, i32, ptr, ...) @col_add_fstr(ptr noundef %8, i32 noundef 35, ptr noundef nonnull @.str.195, i32 noundef %5)
  %9 = load ptr, ptr %7, align 8
  tail call void @col_clear(ptr noundef %9, i32 noundef 25)
  %10 = load i32, ptr @proto_igmp, align 4
  %11 = tail call ptr @proto_tree_add_item(ptr noundef %2, i32 noundef %10, ptr noundef %0, i32 noundef 0, i32 noundef -1, i32 noundef 0)
  %12 = load i32, ptr @ett_igmp, align 4
  %13 = tail call ptr @proto_item_add_subtree(ptr noundef %11, i32 noundef %12)
  %14 = tail call zeroext i8 @tvb_get_uint8(ptr noundef %0, i32 noundef 0)
  store i8 %14, ptr %4, align 1
  %15 = load ptr, ptr %7, align 8
  %16 = zext i8 %14 to i32
  %17 = tail call ptr @val_to_str(i32 noundef %16, ptr noundef nonnull @commands, ptr noundef nonnull @.str.194)
  tail call void @col_add_str(ptr noundef %15, i32 noundef 25, ptr noundef %17)
  %18 = load i32, ptr @hf_version, align 4
  %19 = tail call ptr @proto_tree_add_uint(ptr noundef %13, i32 noundef %18, ptr noundef %0, i32 noundef 0, i32 noundef 0, i32 noundef %5)
  %.not.i = icmp eq ptr %19, null
  br i1 %.not.i, label %proto_item_set_generated.exit, label %20

20:                                               ; preds = %6
  %21 = getelementptr inbounds nuw i8, ptr %19, i64 40
  %22 = load ptr, ptr %21, align 8
  %.not5.i = icmp eq ptr %22, null
  br i1 %.not5.i, label %proto_item_set_generated.exit, label %23

23:                                               ; preds = %20
  %24 = getelementptr inbounds nuw i8, ptr %22, i64 28
  %25 = load i32, ptr %24, align 4
  %26 = or i32 %25, 2
  store i32 %26, ptr %24, align 4
  br label %proto_item_set_generated.exit

proto_item_set_generated.exit:                    ; preds = %6, %20, %23
  %27 = load i32, ptr @hf_type, align 4
  %28 = tail call ptr @proto_tree_add_item(ptr noundef %13, i32 noundef %27, ptr noundef %0, i32 noundef 0, i32 noundef 1, i32 noundef 0)
  store i32 1, ptr %3, align 4
  ret ptr %13
}